; Function Attrs: nofree norecurse nosync nounwind memory(readwrite, inaccessiblemem: none) uwtable
define i32 @Aig_TransferMappedClasses(ptr noundef readonly captures(none) %0, ptr noundef readonly captures(none) %1, ptr noundef readonly captures(none) %2) local_unnamed_addr #9 {
  %4 = getelementptr inbounds nuw i8, ptr %1, i64 256
  %5 = load ptr, ptr %4, align 8
  %.not = icmp eq ptr %5, null
  br i1 %.not, label %.critedge, label %.preheader

.preheader:                                       ; preds = %3
  %6 = getelementptr inbounds nuw i8, ptr %1, i64 32
  %7 = load ptr, ptr %6, align 8
  %8 = getelementptr i8, ptr %7, i64 4
  %.val26 = load i32, ptr %8, align 4
  %9 = icmp sgt i32 %.val26, 0
  br i1 %9, label %.lr.ph, label %.critedge

.lr.ph:                                           ; preds = %.preheader
  %10 = getelementptr i8, ptr %0, i64 32
  %11 = getelementptr inbounds nuw i8, ptr %0, i64 256
  br label %12

12:                                               ; preds = %.lr.ph, %Aig_ObjSetRepr_.exit
  %13 = phi ptr [ %7, %.lr.ph ], [ %51, %Aig_ObjSetRepr_.exit ]
  %indvars.iv = phi i64 [ 0, %.lr.ph ], [ %indvars.iv.next, %Aig_ObjSetRepr_.exit ]
  %.127 = phi i32 [ 0, %.lr.ph ], [ %.2, %Aig_ObjSetRepr_.exit ]
  %14 = getelementptr i8, ptr %13, i64 8
  %.val20 = load ptr, ptr %14, align 8
  %15 = getelementptr inbounds nuw ptr, ptr %.val20, i64 %indvars.iv
  %16 = load ptr, ptr %15, align 8
  %17 = icmp eq ptr %16, null
  br i1 %17, label %Aig_ObjSetRepr_.exit, label %18

18:                                               ; preds = %12
  %19 = load ptr, ptr %4, align 8
  %20 = getelementptr inbounds nuw i8, ptr %16, i64 36
  %21 = load i32, ptr %20, align 4
  %22 = sext i32 %21 to i64
  %23 = getelementptr inbounds ptr, ptr %19, i64 %22
  %24 = load ptr, ptr %23, align 8
  %25 = icmp eq ptr %24, null
  br i1 %25, label %Aig_ObjSetRepr_.exit, label %26

26:                                               ; preds = %18
  %27 = add nsw i32 %.127, 1
  %.val21 = load ptr, ptr %10, align 8
  %.not.i = icmp eq ptr %.val21, null
  br i1 %.not.i, label %Aig_ObjSetRepr_.exit, label %Aig_ManObj.exit25

Aig_ManObj.exit25:                                ; preds = %26
  %28 = getelementptr inbounds i32, ptr %2, i64 %22
  %29 = load i32, ptr %28, align 4
  %30 = getelementptr i8, ptr %.val21, i64 8
  %.val.i = load ptr, ptr %30, align 8
  %31 = sext i32 %29 to i64
  %32 = getelementptr inbounds ptr, ptr %.val.i, i64 %31
  %33 = load ptr, ptr %32, align 8
  %34 = getelementptr inbounds nuw i8, ptr %24, i64 36
  %35 = load i32, ptr %34, align 4
  %36 = sext i32 %35 to i64
  %37 = getelementptr inbounds i32, ptr %2, i64 %36
  %38 = load i32, ptr %37, align 4
  %39 = sext i32 %38 to i64
  %40 = getelementptr inbounds ptr, ptr %.val.i, i64 %39
  %41 = load ptr, ptr %40, align 8
  %42 = icmp eq ptr %33, %41
  br i1 %42, label %Aig_ObjSetRepr_.exit, label %.sink.split.i

.sink.split.i:                                    ; preds = %Aig_ManObj.exit25
  %43 = getelementptr inbounds nuw i8, ptr %33, i64 36
  %44 = load i32, ptr %43, align 4
  %45 = getelementptr inbounds nuw i8, ptr %41, i64 36
  %46 = load i32, ptr %45, align 4
  %47 = icmp slt i32 %44, %46
  %48 = load ptr, ptr %11, align 8
  %..i = tail call i32 @llvm.smax.i32(i32 %44, i32 %46)
  %.16.i = select i1 %47, ptr %33, ptr %41
  %49 = sext i32 %..i to i64
  %50 = getelementptr inbounds ptr, ptr %48, i64 %49
  store ptr %.16.i, ptr %50, align 8
  %.pre = load ptr, ptr %6, align 8
  br label %Aig_ObjSetRepr_.exit

Aig_ObjSetRepr_.exit:                             ; preds = %26, %.sink.split.i, %Aig_ManObj.exit25, %12, %18
  %51 = phi ptr [ %13, %12 ], [ %13, %18 ], [ %13, %Aig_ManObj.exit25 ], [ %.pre, %.sink.split.i ], [ %13, %26 ]
  %.2 = phi i32 [ %.127, %12 ], [ %.127, %18 ], [ %27, %Aig_ManObj.exit25 ], [ %27, %.sink.split.i ], [ %27, %26 ]
  %indvars.iv.next = add nuw nsw i64 %indvars.iv, 1
  %52 = getelementptr i8, ptr %51, i64 4
  %.val = load i32, ptr %52, align 4
  %53 = sext i32 %.val to i64
  %54 = icmp slt i64 %indvars.iv.next, %53
  br i1 %54, label %12, label %.critedge, !llvm.loop !16

.critedge:                                        ; preds = %Aig_ObjSetRepr_.exit, %.preheader, %3
  %.018 = phi i32 [ 0, %3 ], [ 0, %.preheader ], [ %.2, %Aig_ObjSetRepr_.exit ]
  ret i32 %.018
}